target datalayout = "e-m:e-p270:32:32-p271:32:32-p272:64:64-i64:64-i128:128-f80:128-n8:16:32:64-S128"
target triple = "x86_64-pc-linux-gnu"

%struct.persist_msg_t = type { ptr, ptr, i16 }
%struct.dbd_list_msg_t = type { ptr, i32 }
%struct.dbd_acct_coord_msg_t = type { ptr, ptr }
%struct.persist_rc_msg_t = type { ptr, i16, i32, i16 }

@plugin_type = dso_local constant [28 x i8] c"accounting_storage/slurmdbd\00", align 16
@.str.7 = private unnamed_addr constant [3 x i8] c"%s\00", align 1
@.str.8 = private unnamed_addr constant [35 x i8] c"response type not DBD_GOT_LIST: %u\00", align 1
@.str.23 = private unnamed_addr constant [38 x i8] c"DBD_REMOVE_ACCOUNT_COORDS failure: %m\00", align 1
@.str.24 = private unnamed_addr constant [11 x i8] c"%s: %s: %s\00", align 1
@__func__.acct_storage_p_remove_coord = private unnamed_addr constant [28 x i8] c"acct_storage_p_remove_coord\00", align 1

; Function Attrs: nounwind uwtable
define dso_local ptr @acct_storage_p_remove_coord(ptr noundef %0, i32 noundef %1, ptr noundef %2, ptr noundef %3) #0 {
  %5 = alloca ptr, align 8
  %6 = alloca i32, align 4
  %7 = alloca ptr, align 8
  %8 = alloca ptr, align 8
  %9 = alloca %struct.persist_msg_t, align 8
  %10 = alloca %struct.dbd_acct_coord_msg_t, align 8
  %11 = alloca i32, align 4
  %12 = alloca %struct.persist_msg_t, align 8
  %13 = alloca ptr, align 8
  %14 = alloca ptr, align 8
  %15 = alloca ptr, align 8
  store ptr %0, ptr %5, align 8
  store i32 %1, ptr %6, align 4
  store ptr %2, ptr %7, align 8
  store ptr %3, ptr %8, align 8
  call void @llvm.lifetime.start.p0(i64 24, ptr %9) #9
  call void @llvm.memset.p0.i64(ptr align 8 %9, i8 0, i64 24, i1 false)
  call void @llvm.lifetime.start.p0(i64 16, ptr %10) #9
  call void @llvm.lifetime.start.p0(i64 4, ptr %11) #9
  call void @llvm.lifetime.start.p0(i64 24, ptr %12) #9
  call void @llvm.memset.p0.i64(ptr align 8 %12, i8 0, i64 24, i1 false)
  call void @llvm.lifetime.start.p0(i64 8, ptr %13) #9
  call void @llvm.lifetime.start.p0(i64 8, ptr %14) #9
  store ptr null, ptr %14, align 8
  call void @llvm.memset.p0.i64(ptr align 8 %10, i8 0, i64 16, i1 false)
  %16 = load ptr, ptr %7, align 8
  %17 = getelementptr inbounds nuw %struct.dbd_acct_coord_msg_t, ptr %10, i32 0, i32 0
  store ptr %16, ptr %17, align 8
  %18 = load ptr, ptr %8, align 8
  %19 = getelementptr inbounds nuw %struct.dbd_acct_coord_msg_t, ptr %10, i32 0, i32 1
  store ptr %18, ptr %19, align 8
  %20 = getelementptr inbounds nuw %struct.persist_msg_t, ptr %9, i32 0, i32 2
  store i16 1436, ptr %20, align 8
  %21 = load ptr, ptr %5, align 8
  %22 = getelementptr inbounds nuw %struct.persist_msg_t, ptr %9, i32 0, i32 0
  store ptr %21, ptr %22, align 8
  %23 = getelementptr inbounds nuw %struct.persist_msg_t, ptr %9, i32 0, i32 1
  store ptr %10, ptr %23, align 8
  %24 = call i32 @dbd_conn_send_recv(i16 noundef zeroext 11008, ptr noundef %9, ptr noundef %12)
  store i32 %24, ptr %11, align 4
  %25 = load i32, ptr %11, align 4
  %26 = icmp ne i32 %25, 0
  br i1 %26, label %27, label %29

27:                                               ; preds = %4
  %28 = call i32 (ptr, ...) @slurm_error(ptr noundef @.str.23)
  br label %93

29:                                               ; preds = %4
  %30 = getelementptr inbounds nuw %struct.persist_msg_t, ptr %12, i32 0, i32 2
  %31 = load i16, ptr %30, align 8
  %32 = zext i16 %31 to i32
  %33 = icmp eq i32 %32, 1433
  br i1 %33, label %34, label %72

34:                                               ; preds = %29
  call void @llvm.lifetime.start.p0(i64 8, ptr %15) #9
  %35 = getelementptr inbounds nuw %struct.persist_msg_t, ptr %12, i32 0, i32 1
  %36 = load ptr, ptr %35, align 8
  store ptr %36, ptr %15, align 8
  %37 = load ptr, ptr %15, align 8
  %38 = getelementptr inbounds nuw %struct.persist_rc_msg_t, ptr %37, i32 0, i32 2
  %39 = load i32, ptr %38, align 4
  %40 = icmp eq i32 %39, 0
  br i1 %40, label %41, label %56

41:                                               ; preds = %34
  br label %42

42:                                               ; preds = %41
  br label %43

43:                                               ; preds = %42
  %44 = call i32 @slurm_get_log_level()
  %45 = icmp sge i32 %44, 3
  br i1 %45, label %46, label %50

46:                                               ; preds = %43
  %47 = load ptr, ptr %15, align 8
  %48 = getelementptr inbounds nuw %struct.persist_rc_msg_t, ptr %47, i32 0, i32 0
  %49 = load ptr, ptr %48, align 8
  call void (i32, ptr, ...) @slurm_log_var(i32 noundef 3, ptr noundef @.str.24, ptr noundef @plugin_type, ptr noundef @__func__.acct_storage_p_remove_coord, ptr noundef %49)
  br label %50

50:                                               ; preds = %46, %43
  br label %51

51:                                               ; preds = %50
  br label %52

52:                                               ; preds = %51
  br label %53

53:                                               ; preds = %52
  br label %54

54:                                               ; preds = %53
  %55 = call ptr @slurm_list_create(ptr noundef null)
  store ptr %55, ptr %14, align 8
  br label %70

56:                                               ; preds = %34
  %57 = load ptr, ptr %15, align 8
  %58 = getelementptr inbounds nuw %struct.persist_rc_msg_t, ptr %57, i32 0, i32 2
  %59 = load i32, ptr %58, align 4
  %60 = call ptr @__errno_location() #10
  store i32 %59, ptr %60, align 4
  %61 = call ptr @__errno_location() #10
  %62 = load i32, ptr %61, align 4
  %63 = icmp ne i32 %62, 1900
  br i1 %63, label %64, label %69

64:                                               ; preds = %56
  %65 = load ptr, ptr %15, align 8
  %66 = getelementptr inbounds nuw %struct.persist_rc_msg_t, ptr %65, i32 0, i32 0
  %67 = load ptr, ptr %66, align 8
  %68 = call i32 (ptr, ...) @slurm_error(ptr noundef @.str.7, ptr noundef %67)
  br label %69

69:                                               ; preds = %64, %56
  br label %70

70:                                               ; preds = %69, %54
  %71 = load ptr, ptr %15, align 8
  call void @slurm_persist_free_rc_msg(ptr noundef %71)
  call void @llvm.lifetime.end.p0(i64 8, ptr %15) #9
  br label %92

72:                                               ; preds = %29
  %73 = getelementptr inbounds nuw %struct.persist_msg_t, ptr %12, i32 0, i32 2
  %74 = load i16, ptr %73, align 8
  %75 = zext i16 %74 to i32
  %76 = icmp ne i32 %75, 1422
  br i1 %76, label %77, label %82

77:                                               ; preds = %72
  %78 = getelementptr inbounds nuw %struct.persist_msg_t, ptr %12, i32 0, i32 2
  %79 = load i16, ptr %78, align 8
  %80 = zext i16 %79 to i32
  %81 = call i32 (ptr, ...) @slurm_error(ptr noundef @.str.8, i32 noundef %80)
  br label %91

82:                                               ; preds = %72
  %83 = getelementptr inbounds nuw %struct.persist_msg_t, ptr %12, i32 0, i32 1
  %84 = load ptr, ptr %83, align 8
  store ptr %84, ptr %13, align 8
  %85 = load ptr, ptr %13, align 8
  %86 = getelementptr inbounds nuw %struct.dbd_list_msg_t, ptr %85, i32 0, i32 0
  %87 = load ptr, ptr %86, align 8
  store ptr %87, ptr %14, align 8
  %88 = load ptr, ptr %13, align 8
  %89 = getelementptr inbounds nuw %struct.dbd_list_msg_t, ptr %88, i32 0, i32 0
  store ptr null, ptr %89, align 8
  %90 = load ptr, ptr %13, align 8
  call void @slurm_slurmdbd_free_list_msg(ptr noundef %90)
  br label %91

91:                                               ; preds = %82, %77
  br label %92

92:                                               ; preds = %91, %70
  br label %93

93:                                               ; preds = %92, %27
  %94 = load ptr, ptr %14, align 8
  call void @llvm.lifetime.end.p0(i64 8, ptr %14) #9
  call void @llvm.lifetime.end.p0(i64 8, ptr %13) #9
  call void @llvm.lifetime.end.p0(i64 24, ptr %12) #9
  call void @llvm.lifetime.end.p0(i64 4, ptr %11) #9
  call void @llvm.lifetime.end.p0(i64 16, ptr %10) #9
  call void @llvm.lifetime.end.p0(i64 24, ptr %9) #9
  ret ptr %94
}