; Function Attrs: nounwind uwtable
define dso_local ptr @acct_storage_p_remove_coord(ptr noundef %0, i32 noundef %1, ptr noundef %2, ptr noundef %3) local_unnamed_addr #0 {
  %5 = alloca %struct.persist_msg_t, align 8
  %6 = alloca %struct.dbd_acct_coord_msg_t, align 8
  %7 = alloca %struct.persist_msg_t, align 8
  call void @llvm.lifetime.start.p0(i64 24, ptr nonnull %5) #11
  %8 = getelementptr inbounds nuw i8, ptr %5, i64 16
  store i64 0, ptr %8, align 8
  call void @llvm.lifetime.start.p0(i64 16, ptr nonnull %6) #11
  call void @llvm.lifetime.start.p0(i64 24, ptr nonnull %7) #11
  call void @llvm.memset.p0.i64(ptr noundef nonnull align 8 dereferenceable(24) %7, i8 0, i64 24, i1 false)
  store ptr %2, ptr %6, align 8
  %9 = getelementptr inbounds nuw i8, ptr %6, i64 8
  store ptr %3, ptr %9, align 8
  %10 = getelementptr inbounds nuw i8, ptr %5, i64 16
  store i16 1436, ptr %10, align 8
  store ptr %0, ptr %5, align 8
  %11 = getelementptr inbounds nuw i8, ptr %5, i64 8
  store ptr %6, ptr %11, align 8
  %12 = call i32 @dbd_conn_send_recv(i16 noundef zeroext 11008, ptr noundef nonnull %5, ptr noundef nonnull %7) #11
  %.not = icmp eq i32 %12, 0
  br i1 %.not, label %15, label %13

13:                                               ; preds = %4
  %14 = call i32 (ptr, ...) @slurm_error(ptr noundef nonnull @.str.23) #11
  br label %44

15:                                               ; preds = %4
  %16 = getelementptr inbounds nuw i8, ptr %7, i64 16
  %17 = load i16, ptr %16, align 8
  switch i16 %17, label %37 [
    i16 1433, label %18
    i16 1422, label %40
  ]

18:                                               ; preds = %15
  %19 = getelementptr inbounds nuw i8, ptr %7, i64 8
  %20 = load ptr, ptr %19, align 8
  %21 = getelementptr inbounds nuw i8, ptr %20, i64 12
  %22 = load i32, ptr %21, align 4
  %23 = icmp eq i32 %22, 0
  br i1 %23, label %24, label %31

24:                                               ; preds = %18
  %25 = call i32 @slurm_get_log_level() #11
  %26 = icmp sgt i32 %25, 2
  br i1 %26, label %27, label %29

27:                                               ; preds = %24
  %28 = load ptr, ptr %20, align 8
  call void (i32, ptr, ...) @slurm_log_var(i32 noundef 3, ptr noundef nonnull @.str.24, ptr noundef nonnull @plugin_type, ptr noundef nonnull @__func__.acct_storage_p_remove_coord, ptr noundef %28) #11
  br label %29

29:                                               ; preds = %27, %24
  %30 = call ptr @slurm_list_create(ptr noundef null) #11
  br label %36

31:                                               ; preds = %18
  %32 = tail call ptr @__errno_location() #12
  store i32 %22, ptr %32, align 4
  %.not15 = icmp eq i32 %22, 1900
  br i1 %.not15, label %36, label %33

33:                                               ; preds = %31
  %34 = load ptr, ptr %20, align 8
  %35 = call i32 (ptr, ...) @slurm_error(ptr noundef nonnull @.str.7, ptr noundef %34) #11
  br label %36

36:                                               ; preds = %31, %33, %29
  %.1 = phi ptr [ %30, %29 ], [ null, %33 ], [ null, %31 ]
  call void @slurm_persist_free_rc_msg(ptr noundef nonnull %20) #11
  br label %44

37:                                               ; preds = %15
  %38 = zext i16 %17 to i32
  %39 = call i32 (ptr, ...) @slurm_error(ptr noundef nonnull @.str.8, i32 noundef %38) #11
  br label %44

40:                                               ; preds = %15
  %41 = getelementptr inbounds nuw i8, ptr %7, i64 8
  %42 = load ptr, ptr %41, align 8
  %43 = load ptr, ptr %42, align 8
  store ptr null, ptr %42, align 8
  call void @slurm_slurmdbd_free_list_msg(ptr noundef nonnull %42) #11
  br label %44

44:                                               ; preds = %36, %40, %37, %13
  %.0 = phi ptr [ null, %13 ], [ %.1, %36 ], [ null, %37 ], [ %43, %40 ]
  call void @llvm.lifetime.end.p0(i64 24, ptr nonnull %7) #11
  call void @llvm.lifetime.end.p0(i64 16, ptr nonnull %6) #11
  call void @llvm.lifetime.end.p0(i64 24, ptr nonnull %5) #11
  ret ptr %.0
}